; Function Attrs: nounwind uwtable
define internal void @SDL_MouseIntegerModeChanged(ptr noundef writeonly captures(none) initializes((112, 113)) %0, ptr readnone captures(none) %1, ptr readnone captures(none) %2, ptr noundef %3) #0 {
  %.not = icmp eq ptr %3, null
  br i1 %.not, label %10, label %5

5:                                                ; preds = %4
  %6 = load i8, ptr %3, align 1
  %.not6 = icmp eq i8 %6, 0
  br i1 %.not6, label %10, label %7

7:                                                ; preds = %5
  %8 = tail call i32 @SDL_atoi_REAL(ptr noundef nonnull %3) #13
  %9 = trunc i32 %8 to i8
  br label %10

10:                                               ; preds = %4, %5, %7
  %.sink = phi i8 [ %9, %7 ], [ 0, %5 ], [ 0, %4 ]
  %11 = getelementptr inbounds nuw i8, ptr %0, i64 112
  store i8 %.sink, ptr %11, align 8
  ret void
}